(dp0
I448514
(I977
S'King-High Flush'
p1
tp2
sI346115
(I1218
S'Queen-High Flush'
p3
tp4
sI299013
(I784
S'Ace-High Flush'
p5
tp6
sI929798
(I619
S'Ace-High Flush'
p7
tp8
sI849927
(I888
S'King-High Flush'
p9
tp10
sI35530
(I1561
S'Nine-High Flush'
p11
tp12
sI1394697
(I618
S'Ace-High Flush'
p13
tp14
sI45066
(I1017
S'King-High Flush'
p15
tp16
sI140415
(I1068
S'King-High Flush'
p17
tp18
sI15001613
(I326
S'Ace-High Flush'
p19
tp20
sI2324495
(I617
S'Ace-High Flush'
p21
tp22
sI10743949
(I823
S'King-High Flush'
p23
tp24
sI350455
(I1293
S'Queen-High Flush'
p25
tp26
sI667667
(I1389
S'Jack-High Flush'
p27
tp28
sI257439
(I732
S'Ace-High Flush'
p29
tp30
sI3254293
(I616
S'Ace-High Flush'
p31
tp32
sI4515863
(I552
S'Ace-High Flush'
p33
tp34
sI112665
(I1015
S'King-High Flush'
p35
tp36
sI71706
(I1089
S'King-High Flush'
p37
tp38
sI1919005
(I422
S'Ace-High Flush'
p39
tp40
sI745503
(I648
S'Ace-High Flush'
p41
tp42
sI787865
(I1251
S'Queen-High Flush'
p43
tp44
sI5113889
(I615
S'Ace-High Flush'
p45
tp46
sI286143
(I1391
S'Jack-High Flush'
p47
tp48
sI247845
(I594
S'Ace-High Flush'
p49
tp50
sI110630
(I1063
S'King-High Flush'
p51
tp52
sI6043687
(I614
S'Ace-High Flush'
p53
tp54
sI2369851
(I1354
S'Jack-High Flush'
p55
tp56
sI434217
(I1167
S'Queen-High Flush'
p57
tp58
sI278103
(I757
S'Ace-High Flush'
p59
tp60
sI150535
(I1523
S'Ten-High Flush'
p61
tp62
sI74613
(I1558
S'Nine-High Flush'
p63
tp64
sI641654
(I952
S'King-High Flush'
p65
tp66
sI1222702
(I356
S'Ace-High Flush'
p67
tp68
sI2777135
(I527
S'Ace-High Flush'
p69
tp70
sI498355
(I783
S'Ace-High Flush'
p71
tp72
sI1087541
(I1076
S'King-High Flush'
p73
tp74
sI643126
(I544
S'Ace-High Flush'
p75
tp76
sI2197559
(I558
S'Ace-High Flush'
p77
tp78
sI8833081
(I607
S'Ace-High Flush'
p79
tp80
sI49210
(I1107
S'King-High Flush'
p81
tp82
sI690235
(I471
S'Ace-High Flush'
p83
tp84
sI567358
(I460
S'Ace-High Flush'
p85
tp86
sI64515
(I1526
S'Ten-High Flush'
p87
tp88
sI292929
(I1004
S'King-High Flush'
p89
tp90
sI403522
(I448
S'Ace-High Flush'
p91
tp92
sI3772483
(I864
S'King-High Flush'
p93
tp94
sI3387461
(I393
S'Ace-High Flush'
p95
tp96
sI1097679
(I843
S'King-High Flush'
p97
tp98
sI1416545
(I887
S'King-High Flush'
p99
tp100
sI274505
(I1274
S'Queen-High Flush'
p101
tp102
sI35805
(I1349
S'Queen-High Flush'
p103
tp104
sI242165
(I1120
S'King-High Flush'
p105
tp106
sI201058
(I1093
S'King-High Flush'
p107
tp108
sI2915341
(I969
S'King-High Flush'
p109
tp110
sI964689
(I543
S'Ace-High Flush'
p111
tp112
sI1937221
(I1234
S'Queen-High Flush'
p113
tp114
sI2562131
(I697
S'Ace-High Flush'
p115
tp116
sI383061
(I994
S'King-High Flush'
p117
tp118
sI340054
(I674
S'Ace-High Flush'
p119
tp120
sI73815
(I1106
S'King-High Flush'
p121
tp122
sI194649
(I1269
S'Queen-High Flush'
p123
tp124
sI303195
(I668
S'Ace-High Flush'
p125
tp126
sI11730
(I1532
S'Ten-High Flush'
p127
tp128
sI8618077
(I404
S'Ace-High Flush'
p129
tp130
sI768094
(I640
S'Ace-High Flush'
p131
tp132
sI428127
(I979
S'King-High Flush'
p133
tp134
sI34510
(I1461
S'Jack-High Flush'
p135
tp136
sI56810
(I1501
S'Ten-High Flush'
p137
tp138
sI212667
(I767
S'Ace-High Flush'
p139
tp140
sI170085
(I1386
S'Jack-High Flush'
p141
tp142
sI3812369
(I964
S'King-High Flush'
p143
tp144
sI8521063
(I851
S'King-High Flush'
p145
tp146
sI146965
(I1551
S'Nine-High Flush'
p147
tp148
sI17201263
(I368
S'Ace-High Flush'
p149
tp150
sI1585265
(I443
S'Ace-High Flush'
p151
tp152
sI518259
(I958
S'King-High Flush'
p153
tp154
sI103785
(I1123
S'King-High Flush'
p155
tp156
sI16422
(I1531
S'Ten-High Flush'
p157
tp158
sI32890
(I1537
S'Ten-High Flush'
p159
tp160
sI328042
(I918
S'King-High Flush'
p161
tp162
sI256215
(I1190
S'Queen-High Flush'
p163
tp164
sI510081
(I673
S'Ace-High Flush'
p165
tp166
sI2295147
(I821
S'King-High Flush'
p167
tp168
sI210273
(I1294
S'Queen-High Flush'
p169
tp170
sI387205
(I1059
S'King-High Flush'
p171
tp172
sI53382
(I605
S'Ace-High Flush'
p173
tp174
sI1607815
(I542
S'Ace-High Flush'
p175
tp176
sI34034
(I1583
S'Eight-High Flush'
p177
tp178
sI182410
(I997
S'King-High Flush'
p179
tp180
sI354445
(I766
S'Ace-High Flush'
p181
tp182
sI41055
(I1529
S'Ten-High Flush'
p183
tp184
sI6678671
(I3
S'Queen-High Straight Flush'
p185
tp186
sI1232777
(I1235
S'Queen-High Flush'
p187
tp188
sI233618
(I479
S'Ace-High Flush'
p189
tp190
sI54834
(I1099
S'King-High Flush'
p191
tp192
sI6510
(I1353
S'Queen-High Flush'
p193
tp194
sI294814
(I1378
S'Jack-High Flush'
p195
tp196
sI2132123
(I693
S'Ace-High Flush'
p197
tp198
sI318274
(I1048
S'King-High Flush'
p199
tp200
sI1966237
(I573
S'Ace-High Flush'
p201
tp202
sI171717
(I1115
S'King-High Flush'
p203
tp204
sI1390753
(I1194
S'Queen-High Flush'
p205
tp206
sI82082
(I804
S'Ace-High Flush'
p207
tp208
sI130758
(I899
S'King-High Flush'
p209
tp210
sI338086
(I568
S'Ace-High Flush'
p211
tp212
sI114855
(I1306
S'Queen-High Flush'
p213
tp214
sI2398377
(I350
S'Ace-High Flush'
p215
tp216
sI940355
(I1042
S'King-High Flush'
p217
tp218
sI870573
(I871
S'King-High Flush'
p219
tp220
sI2506195
(I855
S'King-High Flush'
p221
tp222
sI623645
(I1380
S'Jack-High Flush'
p223
tp224
sI59570
(I1072
S'King-High Flush'
p225
tp226
sI1988787
(I408
S'Ace-High Flush'
p227
tp228
sI76245
(I1520
S'Ten-High Flush'
p229
tp230
sI49335
(I1536
S'Ten-High Flush'
p231
tp232
sI189658
(I1245
S'Queen-High Flush'
p233
tp234
sI6951967
(I825
S'King-High Flush'
p235
tp236
sI2250941
(I541
S'Ace-High Flush'
p237
tp238
sI7710911
(I410
S'Ace-High Flush'
p239
tp240
sI873103
(I1379
S'Jack-High Flush'
p241
tp242
sI4290
(I1598
S'Seven-High Flush'
p243
tp244
sI168245
(I1503
S'Ten-High Flush'
p245
tp246
sI676039
(I1479
S'Ten-High Flush'
p247
tp248
sI666159
(I1181
S'Queen-High Flush'
p249
tp250
sI332630
(I849
S'King-High Flush'
p251
tp252
sI1005771
(I455
S'Ace-High Flush'
p253
tp254
sI923853
(I398
S'Ace-High Flush'
p255
tp256
sI608465
(I1056
S'King-High Flush'
p257
tp258
sI38454
(I1453
S'Jack-High Flush'
p259
tp260
sI1176791
(I1198
S'Queen-High Flush'
p261
tp262
sI4321493
(I1146
S'Queen-High Flush'
p263
tp264
sI51414
(I777
S'Ace-High Flush'
p265
tp266
sI3621079
(I357
S'Ace-High Flush'
p267
tp268
sI432345
(I449
S'Ace-High Flush'
p269
tp270
sI475354
(I580
S'Ace-High Flush'
p271
tp272
sI350427
(I478
S'Ace-High Flush'
p273
tp274
sI1263994
(I829
S'King-High Flush'
p275
tp276
sI240465
(I724
S'Ace-High Flush'
p277
tp278
sI438495
(I548
S'Ace-High Flush'
p279
tp280
sI124062
(I1171
S'Queen-High Flush'
p281
tp282
sI63714
(I485
S'Ace-High Flush'
p283
tp284
sI274659
(I682
S'Ace-High Flush'
p285
tp286
sI2344505
(I939
S'King-High Flush'
p287
tp288
sI2965735
(I413
S'Ace-High Flush'
p289
tp290
sI117645
(I1277
S'Queen-High Flush'
p291
tp292
sI824619
(I1023
S'King-High Flush'
p293
tp294
sI5454059
(I942
S'King-High Flush'
p295
tp296
sI104006
(I1489
S'Ten-High Flush'
p297
tp298
sI454894
(I1165
S'Queen-High Flush'
p299
tp300
sI1630447
(I698
S'Ace-High Flush'
p301
tp302
sI121737
(I1330
S'Queen-High Flush'
p303
tp304
sI91390
(I1098
S'King-High Flush'
p305
tp306
sI164082
(I634
S'Ace-High Flush'
p307
tp308
sI123123
(I803
S'Ace-High Flush'
p309
tp310
sI55335
(I1335
S'Queen-High Flush'
p311
tp312
sI796917
(I564
S'Ace-High Flush'
p313
tp314
sI881705
(I718
S'Ace-High Flush'
p315
tp316
sI1110265
(I1180
S'Queen-High Flush'
p317
tp318
sI760058
(I540
S'Ace-High Flush'
p319
tp320
sI1558779
(I612
S'Ace-High Flush'
p321
tp322
sI2185469
(I1193
S'Queen-High Flush'
p323
tp324
sI2023678
(I374
S'Ace-High Flush'
p325
tp326
sI1812239
(I1359
S'Jack-High Flush'
p327
tp328
sI2488577
(I621
S'Ace-High Flush'
p329
tp330
sI116994
(I914
S'King-High Flush'
p331
tp332
sI267995
(I1303
S'Queen-High Flush'
p333
tp334
sI119510
(I1088
S'King-High Flush'
p335
tp336
sI2310
(I9
S'Six-High Straight Flush'
p337
tp338
sI96866
(I1122
S'King-High Flush'
p339
tp340
sI182091
(I1394
S'Jack-High Flush'
p341
tp342
sI136059
(I1310
S'Queen-High Flush'
p343
tp344
sI81282
(I1248
S'Queen-High Flush'
p345
tp346
sI444686
(I664
S'Ace-High Flush'
p347
tp348
sI397358
(I1197
S'Queen-High Flush'
p349
tp350
sI278806
(I1367
S'Jack-High Flush'
p351
tp352
sI1839383
(I657
S'Ace-High Flush'
p353
tp354
sI239785
(I1323
S'Queen-High Flush'
p355
tp356
sI1964315
(I1148
S'Queen-High Flush'
p357
tp358
sI1732895
(I966
S'King-High Flush'
p359
tp360
sI9828643
(I341
S'Ace-High Flush'
p361
tp362
sI596037
(I1196
S'Queen-High Flush'
p363
tp364
sI355718
(I1033
S'King-High Flush'
p365
tp366
sI14630
(I1578
S'Nine-High Flush'
p367
tp368
sI32538
(I1459
S'Jack-High Flush'
p369
tp370
sI975821
(I1364
S'Jack-High Flush'
p371
tp372
sI4179335
(I379
S'Ace-High Flush'
p373
tp374
sI608855
(I1411
S'Jack-High Flush'
p375
tp376
sI1190189
(I671
S'Ace-High Flush'
p377
tp378
sI135470
(I1247
S'Queen-High Flush'
p379
tp380
sI155155
(I1339
S'Queen-High Flush'
p381
tp382
sI127281
(I1435
S'Jack-High Flush'
p383
tp384
sI823745
(I1361
S'Jack-High Flush'
p385
tp386
sI8415539
(I818
S'King-High Flush'
p387
tp388
sI169694
(I1260
S'Queen-High Flush'
p389
tp390
sI1242505
(I647
S'Ace-High Flush'
p391
tp392
sI22330
(I1475
S'Jack-High Flush'
p393
tp394
sI2993887
(I1228
S'Queen-High Flush'
p395
tp396
sI150195
(I1296
S'Queen-High Flush'
p397
tp398
sI115005
(I795
S'Ace-High Flush'
p399
tp400
sI55614
(I1273
S'Queen-High Flush'
p401
tp402
sI1313845
(I658
S'Ace-High Flush'
p403
tp404
sI719169
(I892
S'King-High Flush'
p405
tp406
sI164703
(I1275
S'Queen-High Flush'
p407
tp408
sI540995
(I675
S'Ace-High Flush'
p409
tp410
sI443555
(I1368
S'Jack-High Flush'
p411
tp412
sI88179
(I1552
S'Nine-High Flush'
p413
tp414
sI713031
(I579
S'Ace-High Flush'
p415
tp416
sI247863
(I1010
S'King-High Flush'
p417
tp418
sI133455
(I603
S'Ace-High Flush'
p419
tp420
sI127946
(I1096
S'King-High Flush'
p421
tp422
sI34086
(I1502
S'Ten-High Flush'
p423
tp424
sI250971
(I1085
S'King-High Flush'
p425
tp426
sI209235
(I1006
S'King-High Flush'
p427
tp428
sI268345
(I792
S'Ace-High Flush'
p429
tp430
sI176638
(I927
S'King-High Flush'
p431
tp432
sI74074
(I1132
S'King-High Flush'
p433
tp434
sI985435
(I703
S'Ace-High Flush'
p435
tp436
sI4180319
(I536
S'Ace-High Flush'
p437
tp438
sI151905
(I769
S'Ace-High Flush'
p439
tp440
sI1034594
(I360
S'Ace-High Flush'
p441
tp442
sI224315
(I1448
S'Jack-High Flush'
p443
tp444
sI108262
(I1102
S'King-High Flush'
p445
tp446
sI282982
(I667
S'Ace-High Flush'
p447
tp448
sI913767
(I695
S'Ace-High Flush'
p449
tp450
sI1151495
(I1231
S'Queen-High Flush'
p451
tp452
sI1050985
(I1027
S'King-High Flush'
p453
tp454
sI35178
(I807
S'Ace-High Flush'
p455
tp456
sI711399
(I987
S'King-High Flush'
p457
tp458
sI584045
(I477
S'Ace-High Flush'
p459
tp460
sI711022
(I624
S'Ace-High Flush'
p461
tp462
sI334191
(I764
S'Ace-High Flush'
p463
tp464
sI1111443
(I883
S'King-High Flush'
p465
tp466
sI226366
(I1036
S'King-High Flush'
p467
tp468
sI2105719
(I625
S'Ace-High Flush'
p469
tp470
sI1054527
(I1155
S'Queen-High Flush'
p471
tp472
sI319865
(I1094
S'King-High Flush'
p473
tp474
sI135546
(I655
S'Ace-High Flush'
p475
tp476
sI3453307
(I557
S'Ace-High Flush'
p477
tp478
sI1121285
(I975
S'King-High Flush'
p479
tp480
sI3035517
(I373
S'Ace-High Flush'
p481
tp482
sI205205
(I802
S'Ace-High Flush'
p483
tp484
sI15834
(I1472
S'Jack-High Flush'
p485
tp486
sI10626
(I1545
S'Ten-High Flush'
p487
tp488
sI2873731
(I553
S'Ace-High Flush'
p489
tp490
sI102718
(I1401
S'Jack-High Flush'
p491
tp492
sI179265
(I1087
S'King-High Flush'
p493
tp494
sI40755
(I1570
S'Nine-High Flush'
p495
tp496
sI3529097
(I948
S'King-High Flush'
p497
tp498
sI698763
(I700
S'Ace-High Flush'
p499
tp500
sI713545
(I978
S'King-High Flush'
p501
tp502
sI880555
(I1236
S'Queen-High Flush'
p503
tp504
sI179949
(I773
S'Ace-High Flush'
p505
tp506
sI404547
(I729
S'Ace-High Flush'
p507
tp508
sI369334
(I875
S'King-High Flush'
p509
tp510
sI6754709
(I608
S'Ace-High Flush'
p511
tp512
sI627095
(I706
S'Ace-High Flush'
p513
tp514
sI881049
(I644
S'Ace-High Flush'
p515
tp516
sI42735
(I1140
S'King-High Flush'
p517
tp518
sI5513629
(I853
S'King-High Flush'
p519
tp520
sI2400671
(I865
S'King-High Flush'
p521
tp522
sI20202
(I1138
S'King-High Flush'
p523
tp524
sI8610
(I10
S'Five-High Straight Flush'
p525
tp526
sI60214
(I1525
S'Ten-High Flush'
p527
tp528
sI1315237
(I1183
S'Queen-High Flush'
p529
tp530
sI266662
(I1257
S'Queen-High Flush'
p531
tp532
sI1855217
(I970
S'King-High Flush'
p533
tp534
sI72105
(I1506
S'Ten-High Flush'
p535
tp536
sI352682
(I720
S'Ace-High Flush'
p537
tp538
sI1151403
(I423
S'Ace-High Flush'
p539
tp540
sI76038
(I1373
S'Jack-High Flush'
p541
tp542
sI852397
(I1410
S'Jack-High Flush'
p543
tp544
sI20910
(I801
S'Ace-High Flush'
p545
tp546
sI987567
(I362
S'Ace-High Flush'
p547
tp548
sI11905457
(I495
S'Ace-High Flush'
p549
tp550
sI25194
(I1556
S'Nine-High Flush'
p551
tp552
sI3023603
(I1020
S'King-High Flush'
p553
tp554
sI3774901
(I1172
S'Queen-High Flush'
p555
tp556
sI18870
(I1129
S'King-High Flush'
p557
tp558
sI659895
(I400
S'Ace-High Flush'
p559
tp560
sI54230
(I1458
S'Jack-High Flush'
p561
tp562
sI91698
(I1207
S'Queen-High Flush'
p563
tp564
sI845215
(I566
S'Ace-High Flush'
p565
tp566
sI303485
(I1393
S'Jack-High Flush'
p567
tp568
sI414141
(I472
S'Ace-High Flush'
p569
tp570
sI121278
(I670
S'Ace-High Flush'
p571
tp572
sI250705
(I1428
S'Jack-High Flush'
p573
tp574
sI250305
(I480
S'Ace-High Flush'
p575
tp576
sI209346
(I430
S'Ace-High Flush'
p577
tp578
sI395715
(I876
S'King-High Flush'
p579
tp580
sI674245
(I728
S'Ace-High Flush'
p581
tp582
sI45510
(I486
S'Ace-High Flush'
p583
tp584
sI418209
(I1366
S'Jack-High Flush'
p585
tp586
sI5466571
(I531
S'Ace-High Flush'
p587
tp588
sI80290
(I932
S'King-High Flush'
p589
tp590
sI1272271
(I587
S'Ace-High Flush'
p591
tp592
sI141778
(I768
S'Ace-High Flush'
p593
tp594
sI268755
(I709
S'Ace-High Flush'
p595
tp596
sI243542
(I1413
S'Jack-High Flush'
p597
tp598
sI795093
(I972
S'King-High Flush'
p599
tp600
sI145145
(I1464
S'Jack-High Flush'
p601
tp602
sI563673
(I1185
S'Queen-High Flush'
p603
tp604
sI66010
(I744
S'Ace-High Flush'
p605
tp606
sI154077
(I1400
S'Jack-High Flush'
p607
tp608
sI428978
(I908
S'King-High Flush'
p609
tp610
sI5235167
(I384
S'Ace-High Flush'
p611
tp612
sI305805
(I981
S'King-High Flush'
p613
tp614
sI682465
(I909
S'King-High Flush'
p615
tp616
sI537602
(I1161
S'Queen-High Flush'
p617
tp618
sI362235
(I569
S'Ace-High Flush'
p619
tp620
sI130065
(I1396
S'Jack-High Flush'
p621
tp622
sI4989413
(I416
S'Ace-High Flush'
p623
tp624
sI6630
(I1590
S'Eight-High Flush'
p625
tp626
sI506345
(I1049
S'King-High Flush'
p627
tp628
sI70122
(I1217
S'Queen-High Flush'
p629
tp630
sI545259
(I589
S'Ace-High Flush'
p631
tp632
sI418285
(I1084
S'King-High Flush'
p633
tp634
sI391391
(I1513
S'Ten-High Flush'
p635
tp636
sI62205
(I1467
S'Jack-High Flush'
p637
tp638
sI338865
(I653
S'Ace-High Flush'
p639
tp640
sI90610
(I790
S'Ace-High Flush'
p641
tp642
sI740962
(I884
S'King-High Flush'
p643
tp644
sI1186294
(I415
S'Ace-High Flush'
p645
tp646
sI86802
(I1054
S'King-High Flush'
p647
tp648
sI66045
(I1126
S'King-High Flush'
p649
tp650
sI18942
(I814
S'Ace-High Flush'
p651
tp652
sI143871
(I1324
S'Queen-High Flush'
p653
tp654
sI6109697
(I525
S'Ace-High Flush'
p655
tp656
sI115115
(I1533
S'Ten-High Flush'
p657
tp658
sI1344005
(I1159
S'Queen-High Flush'
p659
tp660
sI168454
(I1302
S'Queen-High Flush'
p661
tp662
sI1124097
(I440
S'Ace-High Flush'
p663
tp664
sI324105
(I584
S'Ace-High Flush'
p665
tp666
sI90321
(I1524
S'Ten-High Flush'
p667
tp668
sI4386221
(I504
S'Ace-High Flush'
p669
tp670
sI4569617
(I1151
S'Queen-High Flush'
p671
tp672
sI291346
(I755
S'Ace-High Flush'
p673
tp674
sI301587
(I1092
S'King-High Flush'
p675
tp676
sI756245
(I581
S'Ace-High Flush'
p677
tp678
sI6892633
(I503
S'Ace-High Flush'
p679
tp680
sI2859545
(I390
S'Ace-High Flush'
p681
tp682
sI231855
(I678
S'Ace-High Flush'
p683
tp684
sI3508673
(I854
S'King-High Flush'
p685
tp686
sI16926
(I1347
S'Queen-High Flush'
p687
tp688
sI492063
(I917
S'King-High Flush'
p689
tp690
sI45885
(I1509
S'Ten-High Flush'
p691
tp692
sI1188385
(I578
S'Ace-High Flush'
p693
tp694
sI139810
(I601
S'Ace-High Flush'
p695
tp696
sI2449955
(I434
S'Ace-High Flush'
p697
tp698
sI9945637
(I817
S'King-High Flush'
p699
tp700
sI223665
(I922
S'King-High Flush'
p701
tp702
sI11020841
(I489
S'Ace-High Flush'
p703
tp704
sI2163242
(I338
S'Ace-High Flush'
p705
tp706
sI14411869
(I488
S'Ace-High Flush'
p707
tp708
sI2800733
(I4
S'Jack-High Straight Flush'
p709
tp710
sI1374365
(I1022
S'King-High Flush'
p711
tp712
sI121394
(I1395
S'Jack-High Flush'
p713
tp714
sI2097715
(I945
S'King-High Flush'
p715
tp716
sI506974
(I904
S'King-High Flush'
p717
tp718
sI1671734
(I381
S'Ace-High Flush'
p719
tp720
sI5830201
(I858
S'King-High Flush'
p721
tp722
sI89355
(I1071
S'King-High Flush'
p723
tp724
sI2052665
(I554
S'Ace-High Flush'
p725
tp726
sI472719
(I1252
S'Queen-High Flush'
p727
tp728
sI390507
(I1287
S'Queen-High Flush'
p729
tp730
sI95095
(I1567
S'Nine-High Flush'
p731
tp732
sI126730
(I1372
S'Jack-High Flush'
p733
tp734
sI1221185
(I425
S'Ace-High Flush'
p735
tp736
sI336651
(I722
S'Ace-High Flush'
p737
tp738
sI25911877
(I323
S'Ace-High Flush'
p739
tp740
sI92742
(I680
S'Ace-High Flush'
p741
tp742
sI98890
(I1222
S'Queen-High Flush'
p743
tp744
sI447051
(I1241
S'Queen-High Flush'
p745
tp746
sI1714765
(I866
S'King-High Flush'
p747
tp748
sI158286
(I878
S'King-High Flush'
p749
tp750
sI13566
(I1565
S'Nine-High Flush'
p751
tp752
sI90706
(I1311
S'Queen-High Flush'
p753
tp754
sI6818915
(I328
S'Ace-High Flush'
p755
tp756
sI3570
(I1595
S'Eight-High Flush'
p757
tp758
sI9722453
(I382
S'Ace-High Flush'
p759
tp760
sI361046
(I463
S'Ace-High Flush'
p761
tp762
sI2593367
(I881
S'King-High Flush'
p763
tp764
sI1829465
(I842
S'King-High Flush'
p765
tp766
sI197210
(I475
S'Ace-High Flush'
p767
tp768
sI6369883
(I431
S'Ace-High Flush'
p769
tp770
sI410205
(I632
S'Ace-High Flush'
p771
tp772
sI78430
(I1278
S'Queen-High Flush'
p773
tp774
sI16302
(I1572
S'Nine-High Flush'
p775
tp776
sI21090
(I1109
S'King-High Flush'
p777
tp778
sI106743
(I1518
S'Ten-High Flush'
p779
tp780
sI18387557
(I332
S'Ace-High Flush'
p781
tp782
sI23142
(I1442
S'Jack-High Flush'
p783
tp784
sI44574
(I1492
S'Ten-High Flush'
p785
tp786
sI129642
(I586
S'Ace-High Flush'
p787
tp788
sI534905
(I1202
S'Queen-High Flush'
p789
tp790
sI465682
(I847
S'King-High Flush'
p791
tp792
sI62062
(I1341
S'Queen-High Flush'
p793
tp794
sI776815
(I1077
S'King-High Flush'
p795
tp796
sI7854
(I1593
S'Eight-High Flush'
p797
tp798
sI57970
(I1333
S'Queen-High Flush'
p799
tp800
sI189805
(I1454
S'Jack-High Flush'
p801
tp802
sI37310
(I809
S'Ace-High Flush'
p803
tp804
sI225910
(I654
S'Ace-High Flush'
p805
tp806
sI399993
(I1256
S'Queen-High Flush'
p807
tp808
sI5059195
(I372
S'Ace-High Flush'
p809
tp810
sI549746
(I1024
S'King-High Flush'
p811
tp812
sI529023
(I719
S'Ace-High Flush'
p813
tp814
sI572033
(I1483
S'Ten-High Flush'
p815
tp816
sI993922
(I535
S'Ace-High Flush'
p817
tp818
sI1458821
(I713
S'Ace-High Flush'
p819
tp820
sI376257
(I707
S'Ace-High Flush'
p821
tp822
sI1881607
(I1158
S'Queen-High Flush'
p823
tp824
sI78474
(I686
S'Ace-High Flush'
p825
tp826
sI43010
(I1527
S'Ten-High Flush'
p827
tp828
sI760461
(I903
S'King-High Flush'
p829
tp830
sI52910
(I1134
S'King-High Flush'
p831
tp832
sI463505
(I756
S'Ace-High Flush'
p833
tp834
sI15470
(I1588
S'Eight-High Flush'
p835
tp836
sI202895
(I1329
S'Queen-High Flush'
p837
tp838
sI140505
(I1421
S'Jack-High Flush'
p839
tp840
sI565915
(I1034
S'King-High Flush'
p841
tp842
sI100122
(I482
S'Ace-High Flush'
p843
tp844
sI1113959
(I1045
S'King-High Flush'
p845
tp846
sI39585
(I1470
S'Jack-High Flush'
p847
tp848
sI920227
(I1080
S'King-High Flush'
p849
tp850
sI310726
(I1079
S'King-High Flush'
p851
tp852
sI15015
(I8
S'Seven-High Straight Flush'
p853
tp854
sI3175081
(I417
S'Ace-High Flush'
p855
tp856
sI2730
(I1599
S'Seven-High Flush'
p857
tp858
sI5610
(I1594
S'Eight-High Flush'
p859
tp860
sI199342
(I785
S'Ace-High Flush'
p861
tp862
sI1043119
(I1239
S'Queen-High Flush'
p863
tp864
sI24882
(I1469
S'Jack-High Flush'
p865
tp866
sI3056755
(I354
S'Ace-High Flush'
p867
tp868
sI580382
(I872
S'King-High Flush'
p869
tp870
sI39606
(I745
S'Ace-High Flush'
p871
tp872
sI1733303
(I1249
S'Queen-High Flush'
p873
tp874
sI1983163
(I886
S'King-High Flush'
p875
tp876
sI330429
(I1291
S'Queen-High Flush'
p877
tp878
sI107198
(I1305
S'Queen-High Flush'
p879
tp880
sI303807
(I1050
S'King-High Flush'
p881
tp882
sI17094
(I1142
S'King-High Flush'
p883
tp884
sI99015
(I743
S'Ace-High Flush'
p885
tp886
sI27370
(I1530
S'Ten-High Flush'
p887
tp888
sI58058
(I1466
S'Jack-High Flush'
p889
tp890
sI14209739
(I375
S'Ace-High Flush'
p891
tp892
sI66378
(I1064
S'King-High Flush'
p893
tp894
sI100130
(I1297
S'Queen-High Flush'
p895
tp896
sI851037
(I459
S'Ace-High Flush'
p897
tp898
sI69069
(I1534
S'Ten-High Flush'
p899
tp900
sI2292433
(I712
S'Ace-High Flush'
p901
tp902
sI1495762
(I387
S'Ace-High Flush'
p903
tp904
sI90915
(I1437
S'Jack-High Flush'
p905
tp906
sI305877
(I1266
S'Queen-High Flush'
p907
tp908
sI195286
(I1005
S'King-High Flush'
p909
tp910
sI33495
(I1474
S'Jack-High Flush'
p911
tp912
sI957145
(I629
S'Ace-High Flush'
p913
tp914
sI66495
(I1342
S'Queen-High Flush'
p915
tp916
sI2890459
(I656
S'Ace-High Flush'
p917
tp918
sI4152029
(I412
S'Ace-High Flush'
p919
tp920
sI50830
(I1521
S'Ten-High Flush'
p921
tp922
sI293601
(I598
S'Ace-High Flush'
p923
tp924
sI129766
(I1270
S'Queen-High Flush'
p925
tp926
sI1893749
(I747
S'Ace-High Flush'
p927
tp928
sI840565
(I1199
S'Queen-High Flush'
p929
tp930
sI217833
(I738
S'Ace-High Flush'
p931
tp932
sI285418
(I980
S'King-High Flush'
p933
tp934
sI135915
(I789
S'Ace-High Flush'
p935
tp936
sI385671
(I1210
S'Queen-High Flush'
p937
tp938
sI1678061
(I890
S'King-High Flush'
p939
tp940
sI348910
(I429
S'Ace-High Flush'
p941
tp942
sI1231599
(I555
S'Ace-High Flush'
p943
tp944
sI790685
(I650
S'Ace-High Flush'
p945
tp946
sI9546481
(I327
S'Ace-High Flush'
p947
tp948
sI1739507
(I646
S'Ace-High Flush'
p949
tp950
sI165945
(I1062
S'King-High Flush'
p951
tp952
sI97014
(I1039
S'King-High Flush'
p953
tp954
sI1508087
(I1355
S'Jack-High Flush'
p955
tp956
sI1663739
(I577
S'Ace-High Flush'
p957
tp958
sI264957
(I926
S'King-High Flush'
p959
tp960
sI409045
(I1212
S'Queen-High Flush'
p961
tp962
sI578305
(I591
S'Ace-High Flush'
p963
tp964
sI19734
(I1538
S'Ten-High Flush'
p965
tp966
sI252681
(I1301
S'Queen-High Flush'
p967
tp968
sI262922
(I1083
S'King-High Flush'
p969
tp970
sI2267915
(I418
S'Ace-High Flush'
p971
tp972
sI138567
(I1549
S'Nine-High Flush'
p973
tp974
sI9325327
(I490
S'Ace-High Flush'
p975
tp976
sI1757545
(I1154
S'Queen-High Flush'
p977
tp978
sI49938
(I689
S'Ace-High Flush'
p979
tp980
sI165242
(I1011
S'King-High Flush'
p981
tp982
sI46690
(I1406
S'Jack-High Flush'
p983
tp984
sI488215
(I1003
S'King-High Flush'
p985
tp986
sI76570
(I1307
S'Queen-High Flush'
p987
tp988
sI437019
(I754
S'Ace-High Flush'
p989
tp990
sI198835
(I1497
S'Ten-High Flush'
p991
tp992
sI121210
(I1262
S'Queen-High Flush'
p993
tp994
sI62238
(I742
S'Ace-High Flush'
p995
tp996
sI1039737
(I967
S'King-High Flush'
p997
tp998
sI1325858
(I409
S'Ace-High Flush'
p999
tp1000
sI226083
(I1321
S'Queen-High Flush'
p1001
tp1002
sI116870
(I1216
S'Queen-High Flush'
p1003
tp1004
sI16530
(I1443
S'Jack-High Flush'
p1005
tp1006
sI74290
(I1491
S'Ten-High Flush'
p1007
tp1008
sI119301
(I1498
S'Ten-High Flush'
p1009
tp1010
sI9104173
(I496
S'Ace-High Flush'
p1011
tp1012
sI345506
(I959
S'King-High Flush'
p1013
tp1014
sI3230513
(I641
S'Ace-High Flush'
p1015
tp1016
sI670514
(I456
S'Ace-High Flush'
p1017
tp1018
sI209715
(I600
S'Ace-High Flush'
p1019
tp1020
sI207669
(I1219
S'Queen-High Flush'
p1021
tp1022
sI13110
(I1512
S'Ten-High Flush'
p1023
tp1024
sI14790
(I1463
S'Jack-High Flush'
p1025
tp1026
sI170810
(I1191
S'Queen-High Flush'
p1027
tp1028
sI638435
(I993
S'King-High Flush'
p1029
tp1030
sI49742
(I1559
S'Nine-High Flush'
p1031
tp1032
sI4614973
(I943
S'King-High Flush'
p1033
tp1034
sI3244863
(I337
S'Ace-High Flush'
p1035
tp1036
sI7410
(I1576
S'Nine-High Flush'
p1037
tp1038
sI1592129
(I1162
S'Queen-High Flush'
p1039
tp1040
sI99138
(I596
S'Ace-High Flush'
p1041
tp1042
sI23870
(I1350
S'Queen-High Flush'
p1043
tp1044
sI1110854
(I529
S'Ace-High Flush'
p1045
tp1046
sI189255
(I928
S'King-High Flush'
p1047
tp1048
sI365079
(I1057
S'King-High Flush'
p1049
tp1050
sI1774409
(I901
S'King-High Flush'
p1051
tp1052
sI23370
(I781
S'Ace-High Flush'
p1053
tp1054
sI111435
(I1490
S'Ten-High Flush'
p1055
tp1056
sI531278
(I565
S'Ace-High Flush'
p1057
tp1058
sI574287
(I630
S'Ace-High Flush'
p1059
tp1060
sI28014
(I1407
S'Jack-High Flush'
p1061
tp1062
sI2507601
(I380
S'Ace-High Flush'
p1063
tp1064
sI1039186
(I613
S'Ace-High Flush'
p1065
tp1066
sI7351123
(I830
S'King-High Flush'
p1067
tp1068
sI1504085
(I626
S'Ace-High Flush'
p1069
tp1070
sI35670
(I690
S'Ace-High Flush'
p1071
tp1072
sI441595
(I925
S'King-High Flush'
p1073
tp1074
sI1852405
(I882
S'King-High Flush'
p1075
tp1076
sI424235
(I1258
S'Queen-High Flush'
p1077
tp1078
sI394383
(I1082
S'King-High Flush'
p1079
tp1080
sI84854
(I1436
S'Jack-High Flush'
p1081
tp1082
sI52026
(I1398
S'Jack-High Flush'
p1083
tp1084
sI1503717
(I856
S'King-High Flush'
p1085
tp1086
sI6095713
(I936
S'King-High Flush'
p1087
tp1088
sI899899
(I1208
S'Queen-High Flush'
p1089
tp1090
sI93670
(I1422
S'Jack-High Flush'
p1091
tp1092
sI56166
(I1070
S'King-High Flush'
p1093
tp1094
sI346983
(I592
S'Ace-High Flush'
p1095
tp1096
sI3959657
(I691
S'Ace-High Flush'
p1097
tp1098
sI697015
(I1365
S'Jack-High Flush'
p1099
tp1100
sI4467565
(I343
S'Ace-High Flush'
p1101
tp1102
sI1003255
(I990
S'King-High Flush'
p1103
tp1104
sI190762
(I1392
S'Jack-High Flush'
p1105
tp1106
sI871131
(I1176
S'Queen-High Flush'
p1107
tp1108
sI316274
(I652
S'Ace-High Flush'
p1109
tp1110
sI56202
(I1423
S'Jack-High Flush'
p1111
tp1112
sI3887989
(I526
S'Ace-High Flush'
p1113
tp1114
sI263810
(I877
S'King-High Flush'
p1115
tp1116
sI951159
(I444
S'Ace-High Flush'
p1117
tp1118
sI7082873
(I371
S'Ace-High Flush'
p1119
tp1120
sI81158
(I1331
S'Queen-High Flush'
p1121
tp1122
sI630591
(I1028
S'King-High Flush'
p1123
tp1124
sI705405
(I364
S'Ace-High Flush'
p1125
tp1126
sI76670
(I796
S'Ace-High Flush'
p1127
tp1128
sI707455
(I665
S'Ace-High Flush'
p1129
tp1130
sI541569
(I462
S'Ace-High Flush'
p1131
tp1132
sI860795
(I749
S'Ace-High Flush'
p1133
tp1134
sI85215
(I1500
S'Ten-High Flush'
p1135
tp1136
sI109446
(I998
S'King-High Flush'
p1137
tp1138
sI295815
(I474
S'Ace-High Flush'
p1139
tp1140
sI820105
(I916
S'King-High Flush'
p1141
tp1142
sI88970
(I604
S'Ace-High Flush'
p1143
tp1144
sI299915
(I772
S'Ace-High Flush'
p1145
tp1146
sI183106
(I683
S'Ace-High Flush'
p1147
tp1148
sI167314
(I1086
S'King-High Flush'
p1149
tp1150
sI1471379
(I1026
S'King-High Flush'
p1151
tp1152
sI1569685
(I559
S'Ace-High Flush'
p1153
tp1154
sI101270
(I770
S'Ace-High Flush'
p1155
tp1156
sI150423
(I1429
S'Jack-High Flush'
p1157
tp1158
sI1074073
(I999
S'King-High Flush'
p1159
tp1160
sI609178
(I696
S'Ace-High Flush'
p1161
tp1162
sI564213
(I1043
S'King-High Flush'
p1163
tp1164
sI35742
(I1073
S'King-High Flush'
p1165
tp1166
sI2419615
(I394
S'Ace-High Flush'
p1167
tp1168
sI97185
(I1312
S'Queen-High Flush'
p1169
tp1170
sI698523
(I846
S'King-High Flush'
p1171
tp1172
sI93093
(I1340
S'Queen-High Flush'
p1173
tp1174
sI693158
(I968
S'King-High Flush'
p1175
tp1176
sI284487
(I1244
S'Queen-High Flush'
p1177
tp1178
sI279565
(I1514
S'Ten-High Flush'
p1179
tp1180
sI1164205
(I845
S'King-High Flush'
p1181
tp1182
sI8145839
(I502
S'Ace-High Flush'
p1183
tp1184
sI842673
(I575
S'Ace-High Flush'
p1185
tp1186
sI465842
(I701
S'Ace-High Flush'
p1187
tp1188
sI1518517
(I467
S'Ace-High Flush'
p1189
tp1190
sI86955
(I1332
S'Queen-High Flush'
p1191
tp1192
sI23184311
(I324
S'Ace-High Flush'
p1193
tp1194
sI771001
(I1289
S'Queen-High Flush'
p1195
tp1196
sI25530
(I1074
S'King-High Flush'
p1197
tp1198
sI107338
(I794
S'Ace-High Flush'
p1199
tp1200
sI394174
(I705
S'Ace-High Flush'
p1201
tp1202
sI7971317
(I935
S'King-High Flush'
p1203
tp1204
sI580754
(I1177
S'Queen-High Flush'
p1205
tp1206
sI1708993
(I1075
S'King-High Flush'
p1207
tp1208
sI597835
(I1187
S'Queen-High Flush'
p1209
tp1210
sI48070
(I1507
S'Ten-High Flush'
p1211
tp1212
sI658378
(I363
S'Ace-High Flush'
p1213
tp1214
sI1450955
(I870
S'King-High Flush'
p1215
tp1216
sI70818
(I1014
S'King-High Flush'
p1217
tp1218
sI504339
(I1200
S'Queen-High Flush'
p1219
tp1220
sI24310
(I1585
S'Eight-High Flush'
p1221
tp1222
sI194990
(I913
S'King-High Flush'
p1223
tp1224
sI9442259
(I523
S'Ace-High Flush'
p1225
tp1226
sI3314645
(I407
S'Ace-High Flush'
p1227
tp1228
sI166870
(I481
S'Ace-High Flush'
p1229
tp1230
sI542938
(I956
S'King-High Flush'
p1231
tp1232
sI30498
(I1522
S'Ten-High Flush'
p1233
tp1234
sI911183
(I1285
S'Queen-High Flush'
p1235
tp1236
sI26970
(I1227
S'Queen-High Flush'
p1237
tp1238
sI3910621
(I620
S'Ace-High Flush'
p1239
tp1240
sI46046
(I1535
S'Ten-High Flush'
p1241
tp1242
sI327845
(I1418
S'Jack-High Flush'
p1243
tp1244
sI213962
(I1204
S'Queen-High Flush'
p1245
tp1246
sI179170
(I710
S'Ace-High Flush'
p1247
tp1248
sI375782
(I1186
S'Queen-High Flush'
p1249
tp1250
sI11897831
(I334
S'Ace-High Flush'
p1251
tp1252
sI7703531
(I497
S'Ace-High Flush'
p1253
tp1254
sI203870
(I982
S'King-High Flush'
p1255
tp1256
sI73554
(I736
S'Ace-High Flush'
p1257
tp1258
sI107502
(I711
S'Ace-High Flush'
p1259
tp1260
sI326895
(I897
S'King-High Flush'
p1261
tp1262
sI713713
(I1264
S'Queen-High Flush'
p1263
tp1264
sI363506
(I590
S'Ace-High Flush'
p1265
tp1266
sI324597
(I676
S'Ace-High Flush'
p1267
tp1268
sI162393
(I1101
S'King-High Flush'
p1269
tp1270
sI466089
(I1078
S'King-High Flush'
p1271
tp1272
sI266133
(I1369
S'Jack-High Flush'
p1273
tp1274
sI42315
(I1345
S'Queen-High Flush'
p1275
tp1276
sI57855
(I1440
S'Jack-High Flush'
p1277
tp1278
sI190095
(I1371
S'Jack-High Flush'
p1279
tp1280
sI1676285
(I454
S'Ace-High Flush'
p1281
tp1282
sI44030
(I1127
S'King-High Flush'
p1283
tp1284
sI1245013
(I1030
S'King-High Flush'
p1285
tp1286
sI86710
(I1397
S'Jack-High Flush'
p1287
tp1288
sI181815
(I1261
S'Queen-High Flush'
p1289
tp1290
sI31746
(I1135
S'King-High Flush'
p1291
tp1292
sI672771
(I976
S'King-High Flush'
p1293
tp1294
sI1130942
(I835
S'King-High Flush'
p1295
tp1296
sI749398
(I441
S'Ace-High Flush'
p1297
tp1298
sI216070
(I585
S'Ace-High Flush'
p1299
tp1300
sI1569799
(I974
S'King-High Flush'
p1301
tp1302
sI1404455
(I574
S'Ace-High Flush'
p1303
tp1304
sI1143818
(I392
S'Ace-High Flush'
p1305
tp1306
sI149110
(I923
S'King-High Flush'
p1307
tp1308
sI979982
(I436
S'Ace-High Flush'
p1309
tp1310
sI3573349
(I1019
S'King-High Flush'
p1311
tp1312
sI554001
(I874
S'King-High Flush'
p1313
tp1314
sI806403
(I1160
S'Queen-High Flush'
p1315
tp1316
sI230945
(I1548
S'Nine-High Flush'
p1317
tp1318
sI72726
(I1263
S'Queen-High Flush'
p1319
tp1320
sI5157911
(I937
S'King-High Flush'
p1321
tp1322
sI488474
(I427
S'Ace-High Flush'
p1323
tp1324
sI1659931
(I985
S'King-High Flush'
p1325
tp1326
sI160797
(I1304
S'Queen-High Flush'
p1327
tp1328
sI254541
(I1259
S'Queen-High Flush'
p1329
tp1330
sI4224517
(I636
S'Ace-High Flush'
p1331
tp1332
sI408595
(I1484
S'Ten-High Flush'
p1333
tp1334
sI474145
(I1243
S'Queen-High Flush'
p1335
tp1336
sI236379
(I1426
S'Jack-High Flush'
p1337
tp1338
sI457765
(I681
S'Ace-High Flush'
p1339
tp1340
sI416806
(I716
S'Ace-High Flush'
p1341
tp1342
sI515185
(I1415
S'Jack-High Flush'
p1343
tp1344
sI9194537
(I377
S'Ace-High Flush'
p1345
tp1346
sI111111
(I1131
S'King-High Flush'
p1347
tp1348
sI48174
(I933
S'King-High Flush'
p1349
tp1350
sI45942
(I1308
S'Queen-High Flush'
p1351
tp1352
sI298034
(I1242
S'Queen-High Flush'
p1353
tp1354
sI646323
(I1357
S'Jack-High Flush'
p1355
tp1356
sI5596213
(I348
S'Ace-High Flush'
p1357
tp1358
sI62985
(I1554
S'Nine-High Flush'
p1359
tp1360
sI185402
(I758
S'Ace-High Flush'
p1361
tp1362
sI2243643
(I386
S'Ace-High Flush'
p1363
tp1364
sI273470
(I633
S'Ace-High Flush'
p1365
tp1366
sI962481
(I951
S'King-High Flush'
p1367
tp1368
sI9282
(I1589
S'Eight-High Flush'
p1369
tp1370
sI1328195
(I563
S'Ace-High Flush'
p1371
tp1372
sI1834053
(I355
S'Ace-High Flush'
p1373
tp1374
sI31367009
(I1
S'Royal Flush'
p1375
tp1376
sI533577
(I1032
S'King-High Flush'
p1377
tp1378
sI8970
(I1542
S'Ten-High Flush'
p1379
tp1380
sI2597965
(I611
S'Ace-High Flush'
p1381
tp1382
sI17290
(I1574
S'Nine-High Flush'
p1383
tp1384
sI187473
(I1495
S'Ten-High Flush'
p1385
tp1386
sI243386
(I1058
S'King-High Flush'
p1387
tp1388
sI25935
(I1573
S'Nine-High Flush'
p1389
tp1390
sI13398
(I1476
S'Jack-High Flush'
p1391
tp1392
sI4121689
(I437
S'Ace-High Flush'
p1393
tp1394
sI257114
(I1211
S'Queen-High Flush'
p1395
tp1396
sI2827355
(I833
S'King-High Flush'
p1397
tp1398
sI85085
(I7
S'Eight-High Straight Flush'
p1399
tp1400
sI54366
(I791
S'Ace-High Flush'
p1401
tp1402
sI18354
(I1511
S'Ten-High Flush'
p1403
tp1404
sI605283
(I447
S'Ace-High Flush'
p1405
tp1406
sI22610
(I1564
S'Nine-High Flush'
p1407
tp1408
sI523365
(I428
S'Ace-High Flush'
p1409
tp1410
sI41470
(I1468
S'Jack-High Flush'
p1411
tp1412
sI269841
(I1112
S'King-High Flush'
p1413
tp1414
sI167739
(I1515
S'Ten-High Flush'
p1415
tp1416
sI1604135
(I950
S'King-High Flush'
p1417
tp1418
sI242535
(I1037
S'King-High Flush'
p1419
tp1420
sI1900283
(I953
S'King-High Flush'
p1421
tp1422
sI92690
(I1272
S'Queen-High Flush'
p1423
tp1424
sI154734
(I466
S'Ace-High Flush'
p1425
tp1426
sI79534
(I1499
S'Ten-High Flush'
p1427
tp1428
sI140998
(I1447
S'Jack-High Flush'
p1429
tp1430
sI74865
(I1280
S'Queen-High Flush'
p1431
tp1432
sI212135
(I1434
S'Jack-High Flush'
p1433
tp1434
sI453747
(I582
S'Ace-High Flush'
p1435
tp1436
sI589589
(I1299
S'Queen-High Flush'
p1437
tp1438
sI1297257
(I839
S'King-High Flush'
p1439
tp1440
sI33915
(I1563
S'Nine-High Flush'
p1441
tp1442
sI17670
(I1318
S'Queen-High Flush'
p1443
tp1444
sI220286
(I1292
S'Queen-High Flush'
p1445
tp1446
sI863765
(I957
S'King-High Flush'
p1447
tp1448
sI4756609
(I836
S'King-High Flush'
p1449
tp1450
sI124982
(I1496
S'Ten-High Flush'
p1451
tp1452
sI51051
(I1582
S'Eight-High Flush'
p1453
tp1454
sI1258629
(I946
S'King-High Flush'
p1455
tp1456
sI312455
(I1494
S'Ten-High Flush'
p1457
tp1458
sI256795
(I1399
S'Jack-High Flush'
p1459
tp1460
sI29946
(I1282
S'Queen-High Flush'
p1461
tp1462
sI100947
(I1504
S'Ten-High Flush'
p1463
tp1464
sI1198615
(I891
S'King-High Flush'
p1465
tp1466
sI516477
(I750
S'Ace-High Flush'
p1467
tp1468
sI1152141
(I639
S'Ace-High Flush'
p1469
tp1470
sI203918
(I1267
S'Queen-High Flush'
p1471
tp1472
sI20550799
(I331
S'Ace-High Flush'
p1473
tp1474
sI1787026
(I345
S'Ace-High Flush'
p1475
tp1476
sI195734
(I599
S'Ace-High Flush'
p1477
tp1478
sI424473
(I666
S'Ace-High Flush'
p1479
tp1480
sI474266
(I988
S'King-High Flush'
p1481
tp1482
sI1418395
(I458
S'Ace-High Flush'
p1483
tp1484
sI2245789
(I949
S'King-High Flush'
p1485
tp1486
sI119966
(I774
S'Ace-High Flush'
p1487
tp1488
sI191919
(I1095
S'King-High Flush'
p1489
tp1490
sI4279457
(I353
S'Ace-High Flush'
p1491
tp1492
sI627874
(I561
S'Ace-High Flush'
p1493
tp1494
sI1103011
(I1250
S'Queen-High Flush'
p1495
tp1496
sI352495
(I1445
S'Jack-High Flush'
p1497
tp1498
sI1008805
(I446
S'Ace-High Flush'
p1499
tp1500
sI967846
(I396
S'Ace-High Flush'
p1501
tp1502
sI229245
(I1205
S'Queen-High Flush'
p1503
tp1504
sI1924111
(I1021
S'King-High Flush'
p1505
tp1506
sI561085
(I721
S'Ace-High Flush'
p1507
tp1508
sI449735
(I1111
S'King-High Flush'
p1509
tp1510
sI69190
(I1124
S'King-High Flush'
p1511
tp1512
sI208754
(I921
S'King-High Flush'
p1513
tp1514
sI131138
(I1420
S'Jack-High Flush'
p1515
tp1516
sI460317
(I1001
S'King-High Flush'
p1517
tp1518
sI185185
(I1130
S'King-High Flush'
p1519
tp1520
sI224434
(I723
S'Ace-High Flush'
p1521
tp1522
sI1023155
(I545
S'Ace-High Flush'
p1523
tp1524
sI13005833
(I816
S'King-High Flush'
p1525
tp1526
sI1153243
(I1360
S'Jack-High Flush'
p1527
tp1528
sI437437
(I1493
S'Ten-High Flush'
p1529
tp1530
sI50505
(I1136
S'King-High Flush'
p1531
tp1532
sI502645
(I1091
S'King-High Flush'
p1533
tp1534
sI217005
(I1052
S'King-High Flush'
p1535
tp1536
sI150722
(I1322
S'Queen-High Flush'
p1537
tp1538
sI2426053
(I965
S'King-High Flush'
p1539
tp1540
sI3478727
(I532
S'Ace-High Flush'
p1541
tp1542
sI175305
(I1215
S'Queen-High Flush'
p1543
tp1544
sI489335
(I597
S'Ace-High Flush'
p1545
tp1546
sI14430
(I1139
S'King-High Flush'
p1547
tp1548
sI27170
(I1571
S'Nine-High Flush'
p1549
tp1550
sI138446
(I1220
S'Queen-High Flush'
p1551
tp1552
sI273615
(I996
S'King-High Flush'
p1553
tp1554
sI111826
(I1516
S'Ten-High Flush'
p1555
tp1556
sI21318
(I1562
S'Nine-High Flush'
p1557
tp1558
sI25806
(I1528
S'Ten-High Flush'
p1559
tp1560
sI1205113
(I748
S'Ace-High Flush'
p1561
tp1562
sI92378
(I1550
S'Nine-High Flush'
p1563
tp1564
sI1985753
(I457
S'Ace-High Flush'
p1565
tp1566
sI13530
(I815
S'Ace-High Flush'
p1567
tp1568
sI5934299
(I491
S'Ace-High Flush'
p1569
tp1570
sI643467
(I907
S'King-High Flush'
p1571
tp1572
sI3501605
(I499
S'Ace-High Flush'
p1573
tp1574
sI525538
(I660
S'Ace-High Flush'
p1575
tp1576
sI2561251
(I841
S'King-High Flush'
p1577
tp1578
sI68510
(I1327
S'Queen-High Flush'
p1579
tp1580
sI1360749
(I419
S'Ace-High Flush'
p1581
tp1582
sI1666281
(I528
S'Ace-High Flush'
p1583
tp1584
sI109802
(I1276
S'Queen-High Flush'
p1585
tp1586
sI1920235
(I638
S'Ace-High Flush'
p1587
tp1588
sI1084655
(I468
S'Ace-High Flush'
p1589
tp1590
sI38130
(I606
S'Ace-High Flush'
p1591
tp1592
sI1148147
(I915
S'King-High Flush'
p1593
tp1594
sI37758
(I1226
S'Queen-High Flush'
p1595
tp1596
sI211497
(I1446
S'Jack-High Flush'
p1597
tp1598
sI507129
(I567
S'Ace-High Flush'
p1599
tp1600
sI634106
(I445
S'Ace-High Flush'
p1601
tp1602
sI14535931
(I2
S'King-High Straight Flush'
p1603
tp1604
sI2788357
(I900
S'King-High Flush'
p1605
tp1606
sI6724861
(I352
S'Ace-High Flush'
p1607
tp1608
sI470270
(I365
S'Ace-High Flush'
p1609
tp1610
sI785726
(I1150
S'Queen-High Flush'
p1611
tp1612
sI158746
(I1385
S'Jack-High Flush'
p1613
tp1614
sI1522945
(I694
S'Ace-High Flush'
p1615
tp1616
sI54530
(I779
S'Ace-High Flush'
p1617
tp1618
sI145299
(I1121
S'King-High Flush'
p1619
tp1620
sI479446
(I893
S'King-High Flush'
p1621
tp1622
sI58630
(I806
S'Ace-High Flush'
p1623
tp1624
sI666655
(I1255
S'Queen-High Flush'
p1625
tp1626
sI89726
(I1450
S'Jack-High Flush'
p1627
tp1628
sI850135
(I672
S'Ace-High Flush'
p1629
tp1630
sI19635
(I1591
S'Eight-High Flush'
p1631
tp1632
sI118030
(I1013
S'King-High Flush'
p1633
tp1634
sI421135
(I1300
S'Queen-High Flush'
p1635
tp1636
sI68034
(I1388
S'Jack-High Flush'
p1637
tp1638
sI193154
(I1482
S'Ten-High Flush'
p1639
tp1640
sI81795
(I778
S'Ace-High Flush'
p1641
tp1642
sI376142
(I1044
S'King-High Flush'
p1643
tp1644
sI64790
(I1313
S'Queen-High Flush'
p1645
tp1646
sI3866599
(I1152
S'Queen-High Flush'
p1647
tp1648
sI1379609
(I702
S'Ace-High Flush'
p1649
tp1650
sI363055
(I737
S'Ace-High Flush'
p1651
tp1652
sI126170
(I929
S'King-High Flush'
p1653
tp1654
sI83230
(I688
S'Ace-High Flush'
p1655
tp1656
sI10374
(I1575
S'Nine-High Flush'
p1657
tp1658
sI767195
(I1000
S'King-High Flush'
p1659
tp1660
sI33670
(I1137
S'King-High Flush'
p1661
tp1662
sI175398
(I550
S'Ace-High Flush'
p1663
tp1664
sI682341
(I1164
S'Queen-High Flush'
p1665
tp1666
sI148074
(I962
S'King-High Flush'
p1667
tp1668
sI474411
(I651
S'Ace-High Flush'
p1669
tp1670
sI937802
(I941
S'King-High Flush'
p1671
tp1672
sI728365
(I753
S'Ace-High Flush'
p1673
tp1674
sI17710
(I1544
S'Ten-High Flush'
p1675
tp1676
sI46398
(I1105
S'King-High Flush'
p1677
tp1678
sI103730
(I741
S'Ace-High Flush'
p1679
tp1680
sI902451
(I627
S'Ace-High Flush'
p1681
tp1682
sI113390
(I1387
S'Jack-High Flush'
p1683
tp1684
sI5270837
(I508
S'Ace-High Flush'
p1685
tp1686
sI320943
(I1203
S'Queen-High Flush'
p1687
tp1688
sI7292219
(I405
S'Ace-High Flush'
p1689
tp1690
sI2442583
(I1178
S'Queen-High Flush'
p1691
tp1692
sI172938
(I451
S'Ace-High Flush'
p1693
tp1694
sI2242385
(I861
S'King-High Flush'
p1695
tp1696
sI51765
(I1460
S'Jack-High Flush'
p1697
tp1698
sI310155
(I1169
S'Queen-High Flush'
p1699
tp1700
sI160310
(I725
S'Ace-High Flush'
p1701
tp1702
sI7220551
(I524
S'Ace-High Flush'
p1703
tp1704
sI737035
(I1376
S'Jack-High Flush'
p1705
tp1706
sI2688329
(I637
S'Ace-High Flush'
p1707
tp1708
sI329498
(I1363
S'Jack-High Flush'
p1709
tp1710
sI1895991
(I828
S'King-High Flush'
p1711
tp1712
sI217930
(I898
S'King-High Flush'
p1713
tp1714
sI139490
(I1007
S'King-High Flush'
p1715
tp1716
sI216398
(I677
S'Ace-High Flush'
p1717
tp1718
sI896954
(I863
S'King-High Flush'
p1719
tp1720
sI177422
(I1370
S'Jack-High Flush'
p1721
tp1722
sI477411
(I1047
S'King-High Flush'
p1723
tp1724
sI21390
(I1283
S'Queen-High Flush'
p1725
tp1726
sI625209
(I715
S'Ace-High Flush'
p1727
tp1728
sI60762
(I771
S'Ace-High Flush'
p1729
tp1730
sI57057
(I1568
S'Nine-High Flush'
p1731
tp1732
sI245157
(I1485
S'Ten-High Flush'
p1733
tp1734
sI156009
(I1488
S'Ten-High Flush'
p1735
tp1736
sI697697
(I782
S'Ace-High Flush'
p1737
tp1738
sI9570
(I1477
S'Jack-High Flush'
p1739
tp1740
sI1325155
(I971
S'King-High Flush'
p1741
tp1742
sI75110
(I1016
S'King-High Flush'
p1743
tp1744
sI4902247
(I498
S'Ace-High Flush'
p1745
tp1746
sI5408105
(I336
S'Ace-High Flush'
p1747
tp1748
sI497002
(I649
S'Ace-High Flush'
p1749
tp1750
sI2219371
(I442
S'Ace-High Flush'
p1751
tp1752
sI41990
(I1555
S'Nine-High Flush'
p1753
tp1754
sI157586
(I1427
S'Jack-High Flush'
p1755
tp1756
sI165230
(I595
S'Ace-High Flush'
p1757
tp1758
sI3116399
(I885
S'King-High Flush'
p1759
tp1760
sI75922
(I1456
S'Jack-High Flush'
p1761
tp1762
sI1777555
(I622
S'Ace-High Flush'
p1763
tp1764
sI429065
(I731
S'Ace-High Flush'
p1765
tp1766
sI11130229
(I370
S'Ace-High Flush'
p1767
tp1768
sI1140087
(I539
S'Ace-High Flush'
p1769
tp1770
sI1645945
(I361
S'Ace-High Flush'
p1771
tp1772
sI89466
(I924
S'King-High Flush'
p1773
tp1774
sI4816253
(I879
S'King-High Flush'
p1775
tp1776
sI177045
(I1012
S'King-High Flush'
p1777
tp1778
sI1696413
(I834
S'King-High Flush'
p1779
tp1780
sI269698
(I730
S'Ace-High Flush'
p1781
tp1782
sI3282307
(I938
S'King-High Flush'
p1783
tp1784
sI140182
(I1295
S'Queen-High Flush'
p1785
tp1786
sI731786
(I844
S'King-High Flush'
p1787
tp1788
sI10392967
(I346
S'Ace-High Flush'
p1789
tp1790
sI3089801
(I572
S'Ace-High Flush'
p1791
tp1792
sI6516107
(I852
S'King-High Flush'
p1793
tp1794
sI255374
(I995
S'King-High Flush'
p1795
tp1796
sI232323
(I1060
S'King-High Flush'
p1797
tp1798
sI202130
(I669
S'Ace-High Flush'
p1799
tp1800
sI3687827
(I452
S'Ace-High Flush'
p1801
tp1802
sI96135
(I1451
S'Jack-High Flush'
p1803
tp1804
sI667029
(I663
S'Ace-High Flush'
p1805
tp1806
sI19224941
(I367
S'Ace-High Flush'
p1807
tp1808
sI8215961
(I824
S'King-High Flush'
p1809
tp1810
sI993395
(I1195
S'Queen-High Flush'
p1811
tp1812
sI161007
(I793
S'Ace-High Flush'
p1813
tp1814
sI591261
(I704
S'Ace-High Flush'
p1815
tp1816
sI2484805
(I533
S'Ace-High Flush'
p1817
tp1818
sI302498
(I583
S'Ace-High Flush'
p1819
tp1820
sI864838
(I840
S'King-High Flush'
p1821
tp1822
sI7590
(I1546
S'Ten-High Flush'
p1823
tp1824
sI28210
(I1346
S'Queen-High Flush'
p1825
tp1826
sI238119
(I1384
S'Jack-High Flush'
p1827
tp1828
sI93610
(I1069
S'King-High Flush'
p1829
tp1830
sI374187
(I1381
S'Jack-High Flush'
p1831
tp1832
sI2622893
(I438
S'Ace-High Flush'
p1833
tp1834
sI6460493
(I530
S'Ace-High Flush'
p1835
tp1836
sI2162095
(I838
S'King-High Flush'
p1837
tp1838
sI5107219
(I1145
S'Queen-High Flush'
p1839
tp1840
sI413105
(I1009
S'King-High Flush'
p1841
tp1842
sI87087
(I1465
S'Jack-High Flush'
p1843
tp1844
sI309111
(I1416
S'Jack-High Flush'
p1845
tp1846
sI11615669
(I340
S'Ace-High Flush'
p1847
tp1848
sI36465
(I1584
S'Eight-High Flush'
p1849
tp1850
sI21945
(I1577
S'Nine-High Flush'
p1851
tp1852
sI58786
(I1553
S'Nine-High Flush'
p1853
tp1854
sI566618
(I889
S'King-High Flush'
p1855
tp1856
sI134589
(I1449
S'Jack-High Flush'
p1857
tp1858
sI32190
(I1018
S'King-High Flush'
p1859
tp1860
sI939455
(I1184
S'Queen-High Flush'
p1861
tp1862
sI4238785
(I492
S'Ace-High Flush'
p1863
tp1864
sI15810
(I1338
S'Queen-High Flush'
p1865
tp1866
sI124355
(I1557
S'Nine-High Flush'
p1867
tp1868
sI8778
(I1579
S'Nine-High Flush'
p1869
tp1870
sI933317
(I1254
S'Queen-High Flush'
p1871
tp1872
sI1598918
(I351
S'Ace-High Flush'
p1873
tp1874
sI1062347
(I5
S'Ten-High Straight Flush'
p1875
tp1876
sI260338
(I1288
S'Queen-High Flush'
p1877
tp1878
sI226765
(I1309
S'Queen-High Flush'
p1879
tp1880
sI183885
(I734
S'Ace-High Flush'
p1881
tp1882
sI122322
(I983
S'King-High Flush'
p1883
tp1884
sI1234387
(I717
S'Ace-High Flush'
p1885
tp1886
sI4091349
(I329
S'Ace-High Flush'
p1887
tp1888
sI902615
(I461
S'Ace-High Flush'
p1889
tp1890
sI527527
(I1319
S'Queen-High Flush'
p1891
tp1892
sI908765
(I588
S'Ace-High Flush'
p1893
tp1894
sI615902
(I399
S'Ace-High Flush'
p1895
tp1896
sI73185
(I798
S'Ace-High Flush'
p1897
tp1898
sI47355
(I812
S'Ace-High Flush'
p1899
tp1900
sI1621477
(I1374
S'Jack-High Flush'
p1901
tp1902
sI288230
(I450
S'Ace-High Flush'
p1903
tp1904
sI110055
(I1402
S'Jack-High Flush'
p1905
tp1906
sI292330
(I549
S'Ace-High Flush'
p1907
tp1908
sI53295
(I1560
S'Nine-High Flush'
p1909
tp1910
sI396865
(I1383
S'Jack-High Flush'
p1911
tp1912
sI286195
(I1114
S'King-High Flush'
p1913
tp1914
sI344318
(I751
S'Ace-High Flush'
p1915
tp1916
sI1339481
(I1409
S'Jack-High Flush'
p1917
tp1918
sI71162
(I1519
S'Ten-High Flush'
p1919
tp1920
sI177905
(I1517
S'Ten-High Flush'
p1921
tp1922
sI152830
(I1206
S'Queen-High Flush'
p1923
tp1924
sI144894
(I571
S'Ace-High Flush'
p1925
tp1926
sI36890
(I1336
S'Queen-High Flush'
p1927
tp1928
sI779779
(I762
S'Ace-High Flush'
p1929
tp1930
sI613893
(I546
S'Ace-High Flush'
p1931
tp1932
sI498945
(I848
S'King-High Flush'
p1933
tp1934
sI370185
(I960
S'King-High Flush'
p1935
tp1936
sI629629
(I1110
S'King-High Flush'
p1937
tp1938
sI1873495
(I439
S'Ace-High Flush'
p1939
tp1940
sI154882
(I1061
S'King-High Flush'
p1941
tp1942
sI36366
(I1439
S'Jack-High Flush'
p1943
tp1944
sI1715727
(I391
S'Ace-High Flush'
p1945
tp1946
sI14061073
(I333
S'Ace-High Flush'
p1947
tp1948
sI77330
(I1104
S'King-High Flush'
p1949
tp1950
sI1551891
(I359
S'Ace-High Flush'
p1951
tp1952
sI1469973
(I435
S'Ace-High Flush'
p1953
tp1954
sI128535
(I775
S'Ace-High Flush'
p1955
tp1956
sI3958297
(I832
S'King-High Flush'
p1957
tp1958
sI260015
(I1487
S'Ten-High Flush'
p1959
tp1960
sI29274
(I800
S'Ace-High Flush'
p1961
tp1962
sI239134
(I1189
S'Queen-High Flush'
p1963
tp1964
sI1357345
(I954
S'King-High Flush'
p1965
tp1966
sI601634
(I628
S'Ace-High Flush'
p1967
tp1968
sI4003363
(I389
S'Ace-High Flush'
p1969
tp1970
sI12558
(I1541
S'Ten-High Flush'
p1971
tp1972
sI1066533
(I623
S'Ace-High Flush'
p1973
tp1974
sI2750041
(I1147
S'Queen-High Flush'
p1975
tp1976
sI732711
(I426
S'Ace-High Flush'
p1977
tp1978
sI139035
(I1271
S'Queen-High Flush'
p1979
tp1980
sI650793
(I469
S'Ace-High Flush'
p1981
tp1982
sI20010
(I1408
S'Jack-High Flush'
p1983
tp1984
sI28490
(I1141
S'King-High Flush'
p1985
tp1986
sI46002
(I797
S'Ace-High Flush'
p1987
tp1988
sI3825245
(I820
S'King-High Flush'
p1989
tp1990
sI3429937
(I433
S'Ace-High Flush'
p1991
tp1992
sI282162
(I366
S'Ace-High Flush'
p1993
tp1994
sI159285
(I483
S'Ace-High Flush'
p1995
tp1996
sI118326
(I476
S'Ace-High Flush'
p1997
tp1998
sI6290999
(I388
S'Ace-High Flush'
p1999
tp2000
sI41514
(I1125
S'King-High Flush'
p2001
tp2002
sI3354169
(I509
S'Ace-High Flush'
p2003
tp2004
sI1042015
(I714
S'Ace-High Flush'
p2005
tp2006
sI24738
(I1317
S'Queen-High Flush'
p2007
tp2008
sI336226
(I1201
S'Queen-High Flush'
p2009
tp2010
sI38038
(I1569
S'Nine-High Flush'
p2011
tp2012
sI457653
(I895
S'King-High Flush'
p2013
tp2014
sI2956811
(I1157
S'Queen-High Flush'
p2015
tp2016
sI94395
(I1224
S'Queen-High Flush'
p2017
tp2018
sI324415
(I1268
S'Queen-High Flush'
p2019
tp2020
sI5715523
(I609
S'Ace-High Flush'
p2021
tp2022
sI482885
(I1480
S'Ten-High Flush'
p2023
tp2024
sI1501423
(I905
S'King-High Flush'
p2025
tp2026
sI222794
(I765
S'Ace-High Flush'
p2027
tp2028
sI20706
(I1462
S'Jack-High Flush'
p2029
tp2030
sI79365
(I1133
S'King-High Flush'
p2031
tp2032
sI5389901
(I432
S'Ace-High Flush'
p2033
tp2034
sI62930
(I1225
S'Queen-High Flush'
p2035
tp2036
sI289731
(I1481
S'Ten-High Flush'
p2037
tp2038
sI4933247
(I859
S'King-High Flush'
p2039
tp2040
sI41230
(I1316
S'Queen-High Flush'
p2041
tp2042
sI3133015
(I505
S'Ace-High Flush'
p2043
tp2044
sI10010
(I1596
S'Seven-High Flush'
p2045
tp2046
sI196185
(I684
S'Ace-High Flush'
p2047
tp2048
sI7770
(I1144
S'King-High Flush'
p2049
tp2050
sI551551
(I1424
S'Jack-High Flush'
p2051
tp2052
sI96186
(I726
S'Ace-High Flush'
p2053
tp2054
sI650845
(I1286
S'Queen-High Flush'
p2055
tp2056
sI10866271
(I376
S'Ace-High Flush'
p2057
tp2058
sI79458
(I761
S'Ace-High Flush'
p2059
tp2060
sI4992611
(I635
S'Ace-High Flush'
p2061
tp2062
sI64090
(I1452
S'Jack-High Flush'
p2063
tp2064
sI2055781
(I642
S'Ace-High Flush'
p2065
tp2066
sI587366
(I645
S'Ace-High Flush'
p2067
tp2068
sI171626
(I733
S'Ace-High Flush'
p2069
tp2070
sI163438
(I1486
S'Ten-High Flush'
p2071
tp2072
sI3997295
(I349
S'Ace-High Flush'
p2073
tp2074
sI1900145
(I538
S'Ace-High Flush'
p2075
tp2076
sI767602
(I424
S'Ace-High Flush'
p2077
tp2078
sI13153907
(I369
S'Ace-High Flush'
p2079
tp2080
sI15990
(I811
S'Ace-High Flush'
p2081
tp2082
sI206074
(I1417
S'Jack-High Flush'
p2083
tp2084
sI439930
(I401
S'Ace-High Flush'
p2085
tp2086
sI795685
(I1046
S'King-High Flush'
p2087
tp2088
sI762755
(I894
S'King-High Flush'
p2089
tp2090
sI34410
(I934
S'King-High Flush'
p2091
tp2092
sI276094
(I473
S'Ace-High Flush'
p2093
tp2094
sI2838143
(I513
S'Ace-High Flush'
p2095
tp2096
sI49910
(I1281
S'Queen-High Flush'
p2097
tp2098
sI28290
(I746
S'Ace-High Flush'
p2099
tp2100
sI71630
(I1432
S'Jack-High Flush'
p2101
tp2102
sI292485
(I912
S'King-High Flush'
p2103
tp2104
sI339549
(I1035
S'King-High Flush'
p2105
tp2106
sI1404557
(I989
S'King-High Flush'
p2107
tp2108
sI2727566
(I330
S'Ace-High Flush'
p2109
tp2110
sI2686607
(I421
S'Ace-High Flush'
p2111
tp2112
sI289478
(I1168
S'Queen-High Flush'
p2113
tp2114
sI1316497
(I1041
S'King-High Flush'
p2115
tp2116
sI81345
(I1457
S'Jack-High Flush'
p2117
tp2118
sI3159985
(I827
S'King-High Flush'
p2119
tp2120
sI48790
(I799
S'Ace-High Flush'
p2121
tp2122
sI73370
(I1403
S'Jack-High Flush'
p2123
tp2124
sI17729179
(I325
S'Ace-High Flush'
p2125
tp2126
sI102486
(I1192
S'Queen-High Flush'
p2127
tp2128
sI521885
(I919
S'King-High Flush'
p2129
tp2130
sI1554371
(I1179
S'Queen-High Flush'
p2131
tp2132
sI26565
(I1543
S'Ten-High Flush'
p2133
tp2134
sI4830
(I1547
S'Ten-High Flush'
p2135
tp2136
sI11269793
(I403
S'Ace-High Flush'
p2137
tp2138
sI1111715
(I662
S'Ace-High Flush'
p2139
tp2140
sI1072445
(I906
S'King-High Flush'
p2141
tp2142
sI2543271
(I493
S'Ace-High Flush'
p2143
tp2144
sI1031849
(I1375
S'Jack-High Flush'
p2145
tp2146
sI95914
(I1325
S'Queen-High Flush'
p2147
tp2148
sI1539755
(I397
S'Ace-High Flush'
p2149
tp2150
sI430882
(I1358
S'Jack-High Flush'
p2151
tp2152
sI249458
(I1382
S'Jack-High Flush'
p2153
tp2154
sI409262
(I547
S'Ace-High Flush'
p2155
tp2156
sI120435
(I931
S'King-High Flush'
p2157
tp2158
sI144670
(I1053
S'King-High Flush'
p2159
tp2160
sI179894
(I1113
S'King-High Flush'
p2161
tp2162
sI196707
(I1419
S'Jack-High Flush'
p2163
tp2164
sI85690
(I776
S'Ace-High Flush'
p2165
tp2166
sI2395835
(I510
S'Ace-High Flush'
p2167
tp2168
sI365313
(I1412
S'Jack-High Flush'
p2169
tp2170
sI154570
(I679
S'Ace-High Flush'
p2171
tp2172
sI306878
(I1002
S'King-High Flush'
p2173
tp2174
sI9690
(I1566
S'Nine-High Flush'
p2175
tp2176
sI107445
(I1431
S'Jack-High Flush'
p2177
tp2178
sI703018
(I1156
S'Queen-High Flush'
p2179
tp2180
sI561782
(I576
S'Ace-High Flush'
p2181
tp2182
sI433862
(I470
S'Ace-High Flush'
p2183
tp2184
sI923335
(I873
S'King-High Flush'
p2185
tp2186
sI6220181
(I831
S'King-High Flush'
p2187
tp2188
sI6524617
(I411
S'Ace-High Flush'
p2189
tp2190
sI444106
(I1182
S'Queen-High Flush'
p2191
tp2192
sI11310
(I1473
S'Jack-High Flush'
p2193
tp2194
sI106190
(I484
S'Ace-High Flush'
p2195
tp2196
sI317135
(I786
S'Ace-High Flush'
p2197
tp2198
sI3194147
(I1173
S'Queen-High Flush'
p2199
tp2200
sI32718
(I780
S'Ace-High Flush'
p2201
tp2202
sI22134
(I1337
S'Queen-High Flush'
p2203
tp2204
sI15189721
(I339
S'Ace-High Flush'
p2205
tp2206
sI246790
(I961
S'King-High Flush'
p2207
tp2208
sI2680539
(I344
S'Ace-High Flush'
p2209
tp2210
sI122590
(I735
S'Ace-High Flush'
p2211
tp2212
sI601953
(I991
S'King-High Flush'
p2213
tp2214
sI642785
(I1209
S'Queen-High Flush'
p2215
tp2216
sI67298
(I1505
S'Ten-High Flush'
p2217
tp2218
sI2100963
(I500
S'Ace-High Flush'
p2219
tp2220
sI690897
(I1232
S'Queen-High Flush'
p2221
tp2222
sI130790
(I685
S'Ace-High Flush'
p2223
tp2224
sI41106
(I1328
S'Queen-High Flush'
p2225
tp2226
sI31395
(I1539
S'Ten-High Flush'
p2227
tp2228
sI199578
(I850
S'King-High Flush'
p2229
tp2230
sI420394
(I1029
S'King-High Flush'
p2231
tp2232
sI1267435
(I902
S'King-High Flush'
p2233
tp2234
sI745085
(I1240
S'Queen-High Flush'
p2235
tp2236
sI2027245
(I514
S'Ace-High Flush'
p2237
tp2238
sI83694
(I1008
S'King-High Flush'
p2239
tp2240
sI1406703
(I940
S'King-High Flush'
p2241
tp2242
sI1779441
(I414
S'Ace-High Flush'
p2243
tp2244
sI941811
(I560
S'Ace-High Flush'
p2245
tp2246
sI245427
(I1213
S'Queen-High Flush'
p2247
tp2248
sI60078
(I1298
S'Queen-High Flush'
p2249
tp2250
sI4640503
(I406
S'Ace-High Flush'
p2251
tp2252
sI1451769
(I395
S'Ace-High Flush'
p2253
tp2254
sI323323
(I6
S'Nine-High Straight Flush'
p2255
tp2256
sI44330
(I1343
S'Queen-High Flush'
p2257
tp2258
sI1077205
(I1356
S'Jack-High Flush'
p2259
tp2260
sI206770
(I1170
S'Queen-High Flush'
p2261
tp2262
sI1879809
(I506
S'Ace-High Flush'
p2263
tp2264
sI4423979
(I826
S'King-High Flush'
p2265
tp2266
sI60610
(I1438
S'Jack-High Flush'
p2267
tp2268
sI250838
(I708
S'Ace-High Flush'
p2269
tp2270
sI1028859
(I867
S'King-High Flush'
p2271
tp2272
sI61845
(I1315
S'Queen-High Flush'
p2273
tp2274
sI315146
(I1253
S'Queen-High Flush'
p2275
tp2276
sI3139339
(I860
S'King-High Flush'
p2277
tp2278
sI28842
(I1508
S'Ten-High Flush'
p2279
tp2280
sI3739405
(I385
S'Ace-High Flush'
p2281
tp2282
sI2068781
(I1040
S'King-High Flush'
p2283
tp2284
sI386835
(I464
S'Ace-High Flush'
p2285
tp2286
sI358701
(I1188
S'Queen-High Flush'
p2287
tp2288
sI263958
(I402
S'Ace-High Flush'
p2289
tp2290
sI14586
(I1586
S'Eight-High Flush'
p2291
tp2292
sI1695514
(I494
S'Ace-High Flush'
p2293
tp2294
sI4075291
(I880
S'King-High Flush'
p2295
tp2296
sI703703
(I1090
S'King-High Flush'
p2297
tp2298
sI122655
(I1117
S'King-High Flush'
p2299
tp2300
sI163618
(I1214
S'Queen-High Flush'
p2301
tp2302
sI3990
(I1581
S'Nine-High Flush'
p2303
tp2304
sI1530098
(I822
S'King-High Flush'
p2305
tp2306
sI202538
(I1051
S'King-High Flush'
p2307
tp2308
sI313131
(I920
S'King-High Flush'
p2309
tp2310
sI723695
(I1166
S'Queen-High Flush'
p2311
tp2312
sI114478
(I1116
S'King-High Flush'
p2313
tp2314
sI2346799
(I453
S'Ace-High Flush'
p2315
tp2316
sI1137235
(I1163
S'Queen-High Flush'
p2317
tp2318
sI26418
(I1128
S'King-High Flush'
p2319
tp2320
sI1431859
(I1284
S'Queen-High Flush'
p2321
tp2322
sI26390
(I1471
S'Jack-High Flush'
p2323
tp2324
sI34782
(I1334
S'Queen-High Flush'
p2325
tp2326
sI460598
(I1233
S'Queen-High Flush'
p2327
tp2328
sI12090
(I1348
S'Queen-High Flush'
p2329
tp2330
sI550715
(I1290
S'Queen-High Flush'
p2331
tp2332
sI1437501
(I511
S'Ace-High Flush'
p2333
tp2334
sI1019711
(I752
S'Ace-High Flush'
p2335
tp2336
sI1400642
(I501
S'Ace-High Flush'
p2337
tp2338
sI113883
(I1455
S'Jack-High Flush'
p2339
tp2340
sI148335
(I1221
S'Queen-High Flush'
p2341
tp2342
sI145222
(I739
S'Ace-High Flush'
p2343
tp2344
sI943943
(I727
S'Ace-High Flush'
p2345
tp2346
sI190281
(I787
S'Ace-High Flush'
p2347
tp2348
sI821066
(I556
S'Ace-High Flush'
p2349
tp2350
sI2031337
(I869
S'King-High Flush'
p2351
tp2352
sI42978
(I1433
S'Jack-High Flush'
p2353
tp2354
sI5355343
(I819
S'King-High Flush'
p2355
tp2356
sI20930
(I1540
S'Ten-High Flush'
p2357
tp2358
sI1290065
(I517
S'Ace-High Flush'
p2359
tp2360
sI241490
(I570
S'Ace-High Flush'
p2361
tp2362
sI788307
(I659
S'Ace-High Flush'
p2363
tp2364
sI530062
(I973
S'King-High Flush'
p2365
tp2366
sI1253206
(I507
S'Ace-High Flush'
p2367
tp2368
sI102765
(I1326
S'Queen-High Flush'
p2369
tp2370
sI115995
(I1103
S'King-High Flush'
p2371
tp2372
sI493493
(I1444
S'Jack-High Flush'
p2373
tp2374
sI1216347
(I515
S'Ace-High Flush'
p2375
tp2376
sI685906
(I868
S'King-High Flush'
p2377
tp2378
sI376805
(I1320
S'Queen-High Flush'
p2379
tp2380
sI5336929
(I551
S'Ace-High Flush'
p2381
tp2382
sI257890
(I465
S'Ace-High Flush'
p2383
tp2384
sI509795
(I1265
S'Queen-High Flush'
p2385
tp2386
sI100282
(I1430
S'Jack-High Flush'
p2387
tp2388
sI839086
(I947
S'King-High Flush'
p2389
tp2390
sI305102
(I896
S'King-High Flush'
p2391
tp2392
sI81770
(I1118
S'King-High Flush'
p2393
tp2394
sI2660203
(I537
S'Ace-High Flush'
p2395
tp2396
sI1451885
(I1175
S'Queen-High Flush'
p2397
tp2398
sI1164605
(I699
S'Ace-High Flush'
p2399
tp2400
sI1178589
(I1149
S'Queen-High Flush'
p2401
tp2402
sI22386
(I810
S'Ace-High Flush'
p2403
tp2404
sI2586485
(I358
S'Ace-High Flush'
p2405
tp2406
sI6006
(I1597
S'Seven-High Flush'
p2407
tp2408
sI16107383
(I487
S'Ace-High Flush'
p2409
tp2410
sI30590
(I1510
S'Ten-High Flush'
p2411
tp2412
sI270655
(I1100
S'King-High Flush'
p2413
tp2414
sI31570
(I813
S'Ace-High Flush'
p2415
tp2416
sI137085
(I1097
S'King-High Flush'
p2417
tp2418
sI958334
(I512
S'Ace-High Flush'
p2419
tp2420
sI1185665
(I986
S'King-High Flush'
p2421
tp2422
sI8226691
(I383
S'Ace-High Flush'
p2423
tp2424
sI126854
(I788
S'Ace-High Flush'
p2425
tp2426
sI409479
(I910
S'King-High Flush'
p2427
tp2428
sI87945
(I805
S'Ace-High Flush'
p2429
tp2430
sI382858
(I631
S'Ace-High Flush'
p2431
tp2432
sI851851
(I1055
S'King-High Flush'
p2433
tp2434
sI6270
(I1580
S'Nine-High Flush'
p2435
tp2436
sI1859473
(I562
S'Ace-High Flush'
p2437
tp2438
sI810898
(I516
S'Ace-High Flush'
p2439
tp2440
sI7571347
(I335
S'Ace-High Flush'
p2441
tp2442
sI1002478
(I857
S'King-High Flush'
p2443
tp2444
sI401302
(I992
S'King-High Flush'
p2445
tp2446
sI774039
(I518
S'Ace-High Flush'
p2447
tp2448
sI657305
(I1081
S'King-High Flush'
p2449
tp2450
sI231322
(I593
S'Ace-High Flush'
p2451
tp2452
sI13090
(I1592
S'Eight-High Flush'
p2453
tp2454
sI2460563
(I1153
S'Queen-High Flush'
p2455
tp2456
sI907166
(I420
S'Ace-High Flush'
p2457
tp2458
sI3637151
(I610
S'Ace-High Flush'
p2459
tp2460
sI161690
(I1038
S'King-High Flush'
p2461
tp2462
sI49062
(I1119
S'King-High Flush'
p2463
tp2464
sI2533289
(I1229
S'Queen-High Flush'
p2465
tp2466
sI814407
(I955
S'King-High Flush'
p2467
tp2468
sI124845
(I687
S'Ace-High Flush'
p2469
tp2470
sI83886
(I602
S'Ace-High Flush'
p2471
tp2472
sI55965
(I808
S'Ace-High Flush'
p2473
tp2474
sI1556401
(I661
S'Ace-High Flush'
p2475
tp2476
sI12210
(I1143
S'King-High Flush'
p2477
tp2478
sI2032639
(I1174
S'Queen-High Flush'
p2479
tp2480
sI29526
(I1108
S'King-High Flush'
p2481
tp2482
sI552885
(I520
S'Ace-High Flush'
p2483
tp2484
sI75702
(I930
S'King-High Flush'
p2485
tp2486
sI4505527
(I963
S'King-High Flush'
p2487
tp2488
sI556985
(I763
S'Ace-High Flush'
p2489
tp2490
sI516026
(I519
S'Ace-High Flush'
p2491
tp2492
sI476905
(I1390
S'Jack-High Flush'
p2493
tp2494
sI5851069
(I378
S'Ace-High Flush'
p2495
tp2496
sI3026933
(I837
S'King-High Flush'
p2497
tp2498
sI8794049
(I347
S'Ace-High Flush'
p2499
tp2500
sI1490883
(I534
S'Ace-High Flush'
p2501
tp2502
sI203205
(I1246
S'Queen-High Flush'
p2503
tp2504
sI44022
(I1404
S'Jack-High Flush'
p2505
tp2506
sI59334
(I1223
S'Queen-High Flush'
p2507
tp2508
sI721259
(I1414
S'Jack-High Flush'
p2509
tp2510
sI6090
(I1478
S'Jack-High Flush'
p2511
tp2512
sI155595
(I740
S'Ace-High Flush'
p2513
tp2514
sI70035
(I1405
S'Jack-High Flush'
p2515
tp2516
sI528333
(I1237
S'Queen-High Flush'
p2517
tp2518
sI368590
(I521
S'Ace-High Flush'
p2519
tp2520
sI3350479
(I692
S'Ace-High Flush'
p2521
tp2522
sI47058
(I1279
S'Queen-High Flush'
p2523
tp2524
sI327635
(I1065
S'King-High Flush'
p2525
tp2526
sI132430
(I760
S'Ace-High Flush'
p2527
tp2528
sI38874
(I1314
S'Queen-High Flush'
p2529
tp2530
sI2608463
(I984
S'King-High Flush'
p2531
tp2532
sI352222
(I1238
S'Queen-High Flush'
p2533
tp2534
sI23205
(I1587
S'Eight-High Flush'
p2535
tp2536
sI2936801
(I944
S'King-High Flush'
p2537
tp2538
sI221154
(I522
S'Ace-High Flush'
p2539
tp2540
sI393965
(I1425
S'Jack-High Flush'
p2541
tp2542
sI272986
(I911
S'King-High Flush'
p2543
tp2544
sI196581
(I1066
S'King-High Flush'
p2545
tp2546
sI26598
(I1344
S'Queen-High Flush'
p2547
tp2548
sI2312167
(I1025
S'King-High Flush'
p2549
tp2550
sI889295
(I1031
S'King-High Flush'
p2551
tp2552
sI494247
(I1362
S'Jack-High Flush'
p2553
tp2554
sI442221
(I1377
S'Jack-High Flush'
p2555
tp2556
sI131054
(I1067
S'King-High Flush'
p2557
tp2558
sI1612093
(I1230
S'Queen-High Flush'
p2559
tp2560
sI14322
(I1351
S'Queen-High Flush'
p2561
tp2562
sI1345431
(I862
S'King-High Flush'
p2563
tp2564
sI198645
(I759
S'Ace-High Flush'
p2565
tp2566
sI10230
(I1352
S'Queen-High Flush'
p2567
tp2568
sI6254591
(I342
S'Ace-High Flush'
p2569
tp2570
sI38570
(I1441
S'Jack-High Flush'
p2571
tp2572
sI1468415
(I643
S'Ace-High Flush'
p2573
tp2574
s.